target datalayout = "e-m:e-p270:32:32-p271:32:32-p272:64:64-i64:64-i128:128-f80:128-n8:16:32:64-S128"
target triple = "x86_64-pc-linux-gnu"

; Function Attrs: nounwind uwtable
define internal void @vertical_compose_dd97iH0_8bit(ptr noundef %0, ptr noundef %1, ptr noundef %2, ptr noundef %3, ptr noundef %4, i32 noundef %5) #0 {
  %7 = alloca ptr, align 8
  %8 = alloca ptr, align 8
  %9 = alloca ptr, align 8
  %10 = alloca ptr, align 8
  %11 = alloca ptr, align 8
  %12 = alloca i32, align 4
  %13 = alloca i32, align 4
  %14 = alloca ptr, align 8
  %15 = alloca ptr, align 8
  %16 = alloca ptr, align 8
  %17 = alloca ptr, align 8
  %18 = alloca ptr, align 8
  store ptr %0, ptr %7, align 8, !tbaa !44
  store ptr %1, ptr %8, align 8, !tbaa !44
  store ptr %2, ptr %9, align 8, !tbaa !44
  store ptr %3, ptr %10, align 8, !tbaa !44
  store ptr %4, ptr %11, align 8, !tbaa !44
  store i32 %5, ptr %12, align 4, !tbaa !11
  call void @llvm.lifetime.start.p0(i64 4, ptr %13) #5
  call void @llvm.lifetime.start.p0(i64 8, ptr %14) #5
  %19 = load ptr, ptr %7, align 8, !tbaa !44
  store ptr %19, ptr %14, align 8, !tbaa !48
  call void @llvm.lifetime.start.p0(i64 8, ptr %15) #5
  %20 = load ptr, ptr %8, align 8, !tbaa !44
  store ptr %20, ptr %15, align 8, !tbaa !48
  call void @llvm.lifetime.start.p0(i64 8, ptr %16) #5
  %21 = load ptr, ptr %9, align 8, !tbaa !44
  store ptr %21, ptr %16, align 8, !tbaa !48
  call void @llvm.lifetime.start.p0(i64 8, ptr %17) #5
  %22 = load ptr, ptr %10, align 8, !tbaa !44
  store ptr %22, ptr %17, align 8, !tbaa !48
  call void @llvm.lifetime.start.p0(i64 8, ptr %18) #5
  %23 = load ptr, ptr %11, align 8, !tbaa !44
  store ptr %23, ptr %18, align 8, !tbaa !48
  store i32 0, ptr %13, align 4, !tbaa !11
  br label %24

24:                                               ; preds = %72, %6
  %25 = load i32, ptr %13, align 4, !tbaa !11
  %26 = load i32, ptr %12, align 4, !tbaa !11
  %27 = icmp slt i32 %25, %26
  br i1 %27, label %28, label %75

28:                                               ; preds = %24
  %29 = load ptr, ptr %16, align 8, !tbaa !48
  %30 = load i32, ptr %13, align 4, !tbaa !11
  %31 = sext i32 %30 to i64
  %32 = getelementptr inbounds i16, ptr %29, i64 %31
  %33 = load i16, ptr %32, align 2, !tbaa !50
  %34 = sext i16 %33 to i32
  %35 = load ptr, ptr %15, align 8, !tbaa !48
  %36 = load i32, ptr %13, align 4, !tbaa !11
  %37 = sext i32 %36 to i64
  %38 = getelementptr inbounds i16, ptr %35, i64 %37
  %39 = load i16, ptr %38, align 2, !tbaa !50
  %40 = sext i16 %39 to i32
  %41 = mul i32 9, %40
  %42 = load ptr, ptr %17, align 8, !tbaa !48
  %43 = load i32, ptr %13, align 4, !tbaa !11
  %44 = sext i32 %43 to i64
  %45 = getelementptr inbounds i16, ptr %42, i64 %44
  %46 = load i16, ptr %45, align 2, !tbaa !50
  %47 = sext i16 %46 to i32
  %48 = mul i32 9, %47
  %49 = add i32 %41, %48
  %50 = load ptr, ptr %18, align 8, !tbaa !48
  %51 = load i32, ptr %13, align 4, !tbaa !11
  %52 = sext i32 %51 to i64
  %53 = getelementptr inbounds i16, ptr %50, i64 %52
  %54 = load i16, ptr %53, align 2, !tbaa !50
  %55 = sext i16 %54 to i32
  %56 = sub i32 %49, %55
  %57 = load ptr, ptr %14, align 8, !tbaa !48
  %58 = load i32, ptr %13, align 4, !tbaa !11
  %59 = sext i32 %58 to i64
  %60 = getelementptr inbounds i16, ptr %57, i64 %59
  %61 = load i16, ptr %60, align 2, !tbaa !50
  %62 = sext i16 %61 to i32
  %63 = sub i32 %56, %62
  %64 = add i32 %63, 8
  %65 = ashr i32 %64, 4
  %66 = add i32 %34, %65
  %67 = trunc i32 %66 to i16
  %68 = load ptr, ptr %16, align 8, !tbaa !48
  %69 = load i32, ptr %13, align 4, !tbaa !11
  %70 = sext i32 %69 to i64
  %71 = getelementptr inbounds i16, ptr %68, i64 %70
  store i16 %67, ptr %71, align 2, !tbaa !50
  br label %72

72:                                               ; preds = %28
  %73 = load i32, ptr %13, align 4, !tbaa !11
  %74 = add nsw i32 %73, 1
  store i32 %74, ptr %13, align 4, !tbaa !11
  br label %24, !llvm.loop !53

75:                                               ; preds = %24
  call void @llvm.lifetime.end.p0(i64 8, ptr %18) #5
  call void @llvm.lifetime.end.p0(i64 8, ptr %17) #5
  call void @llvm.lifetime.end.p0(i64 8, ptr %16) #5
  call void @llvm.lifetime.end.p0(i64 8, ptr %15) #5
  call void @llvm.lifetime.end.p0(i64 8, ptr %14) #5
  call void @llvm.lifetime.end.p0(i64 4, ptr %13) #5
  ret void
}